# SymbolsHelper-Confirmed: 6.6.0 amd64
libKF6ColorScheme.so.6 libkf6colorscheme6 #MINVER#
* Build-Depends-Package: libkf6colorscheme-dev
 _ZN12KColorScheme16adjustBackgroundER8QPaletteNS_14BackgroundRoleENS0_9ColorRoleENS_8ColorSetE28QExplicitlySharedDataPointerI13KSharedConfigE@Base 6.0.0
 _ZN12KColorScheme16adjustForegroundER8QPaletteNS_14ForegroundRoleENS0_9ColorRoleENS_8ColorSetE28QExplicitlySharedDataPointerI13KSharedConfigE@Base 6.0.0
 _ZN12KColorScheme19isColorSetSupportedERK28QExplicitlySharedDataPointerI13KSharedConfigENS_8ColorSetE@Base 6.0.0
 _ZN12KColorScheme24createApplicationPaletteERK28QExplicitlySharedDataPointerI13KSharedConfigE@Base 6.0.0
 _ZN12KColorScheme5shadeERK6QColorNS_9ShadeRoleE@Base 6.0.0
 _ZN12KColorScheme5shadeERK6QColorNS_9ShadeRoleEdd@Base 6.0.0
 _ZN12KColorScheme9contrastFERK28QExplicitlySharedDataPointerI13KSharedConfigE@Base 6.0.0
 _ZN12KColorSchemeC1EN8QPalette10ColorGroupENS_8ColorSetE28QExplicitlySharedDataPointerI13KSharedConfigE@Base 6.0.0
 _ZN12KColorSchemeC1EOS_@Base 6.0.0
 _ZN12KColorSchemeC1ERKS_@Base 6.0.0
 _ZN12KColorSchemeC2EN8QPalette10ColorGroupENS_8ColorSetE28QExplicitlySharedDataPointerI13KSharedConfigE@Base 6.0.0
 _ZN12KColorSchemeC2EOS_@Base 6.0.0
 _ZN12KColorSchemeC2ERKS_@Base 6.0.0
 _ZN12KColorSchemeD0Ev@Base 6.0.0
 _ZN12KColorSchemeD1Ev@Base 6.0.0
 _ZN12KColorSchemeD2Ev@Base 6.0.0
 _ZN12KColorSchemeaSEOS_@Base 6.0.0
 _ZN12KColorSchemeaSERKS_@Base 6.0.0
 _ZN14KStatefulBrushC1EN12KColorScheme8ColorSetENS0_14BackgroundRoleE28QExplicitlySharedDataPointerI13KSharedConfigE@Base 6.0.0
 _ZN14KStatefulBrushC1EN12KColorScheme8ColorSetENS0_14DecorationRoleE28QExplicitlySharedDataPointerI13KSharedConfigE@Base 6.0.0
 _ZN14KStatefulBrushC1EN12KColorScheme8ColorSetENS0_14ForegroundRoleE28QExplicitlySharedDataPointerI13KSharedConfigE@Base 6.0.0
 _ZN14KStatefulBrushC1ERK6QBrush28QExplicitlySharedDataPointerI13KSharedConfigE@Base 6.0.0
 _ZN14KStatefulBrushC1ERK6QBrushS2_28QExplicitlySharedDataPointerI13KSharedConfigE@Base 6.0.0
 _ZN14KStatefulBrushC1ERKS_@Base 6.0.0
 _ZN14KStatefulBrushC1Ev@Base 6.0.0
 _ZN14KStatefulBrushC2EN12KColorScheme8ColorSetENS0_14BackgroundRoleE28QExplicitlySharedDataPointerI13KSharedConfigE@Base 6.0.0
 _ZN14KStatefulBrushC2EN12KColorScheme8ColorSetENS0_14DecorationRoleE28QExplicitlySharedDataPointerI13KSharedConfigE@Base 6.0.0
 _ZN14KStatefulBrushC2EN12KColorScheme8ColorSetENS0_14ForegroundRoleE28QExplicitlySharedDataPointerI13KSharedConfigE@Base 6.0.0
 _ZN14KStatefulBrushC2ERK6QBrush28QExplicitlySharedDataPointerI13KSharedConfigE@Base 6.0.0
 _ZN14KStatefulBrushC2ERK6QBrushS2_28QExplicitlySharedDataPointerI13KSharedConfigE@Base 6.0.0
 _ZN14KStatefulBrushC2ERKS_@Base 6.0.0
 _ZN14KStatefulBrushC2Ev@Base 6.0.0
 _ZN14KStatefulBrushD1Ev@Base 6.0.0
 _ZN14KStatefulBrushD2Ev@Base 6.0.0
 _ZN14KStatefulBrushaSERKS_@Base 6.0.0
 _ZN19KColorSchemeManager11qt_metacallEN11QMetaObject4CallEiPPv@Base 6.0.0
 _ZN19KColorSchemeManager11qt_metacastEPKc@Base 6.0.0
 _ZN19KColorSchemeManager14activateSchemeERK11QModelIndex@Base 6.0.0
 _ZN19KColorSchemeManager16staticMetaObjectE@Base 6.0.0
 _ZN19KColorSchemeManager18setAutosaveChangesEb@Base 6.0.0
 _ZN19KColorSchemeManager8instanceEv@Base 6.6.0
 _ZN19KColorSchemeManagerC1EP7QObject@Base 6.0.0
 _ZN19KColorSchemeManagerC2EP7QObject@Base 6.0.0
 _ZN19KColorSchemeManagerD0Ev@Base 6.0.0
 _ZN19KColorSchemeManagerD1Ev@Base 6.0.0
 _ZN19KColorSchemeManagerD2Ev@Base 6.0.0
 _ZNK12KColorScheme10backgroundENS_14BackgroundRoleE@Base 6.0.0
 _ZNK12KColorScheme10decorationENS_14DecorationRoleE@Base 6.0.0
 _ZNK12KColorScheme10foregroundENS_14ForegroundRoleE@Base 6.0.0
 _ZNK12KColorScheme5shadeENS_9ShadeRoleE@Base 6.0.0
 _ZNK12KColorSchemeeqERKS_@Base 6.0.0
 (optional=templinst)_ZNK12KConfigGroup9readEntryI6QColorEET_PKcRKS2_@Base 6.0.0
 (optional=templinst)_ZNK12KConfigGroup9readEntryIbEET_PKcRKS1_@Base 6.0.0
 (optional=templinst)_ZNK12KConfigGroup9readEntryIdEET_PKcRKS1_@Base 6.0.0
 (optional=templinst)_ZNK12KConfigGroup9readEntryIiEET_PKcRKS1_@Base 6.0.0
 _ZNK14KStatefulBrush5brushEN8QPalette10ColorGroupE@Base 6.0.0
 _ZNK14KStatefulBrush5brushERK8QPalette@Base 6.0.0
 _ZNK19KColorSchemeManager10metaObjectEv@Base 6.0.0
 _ZNK19KColorSchemeManager14activeSchemeIdEv@Base 6.0.0
 _ZNK19KColorSchemeManager14indexForSchemeERK7QString@Base 6.0.0
 _ZNK19KColorSchemeManager16activeSchemeNameEv@Base 6.6.0
 _ZNK19KColorSchemeManager16indexForSchemeIdERK7QString@Base 6.6.0
 _ZNK19KColorSchemeManager22saveSchemeToConfigFileERK7QString@Base 6.0.0
 _ZNK19KColorSchemeManager5modelEv@Base 6.0.0
 _ZTI12KColorScheme@Base 6.0.0
 _ZTI19KColorSchemeManager@Base 6.0.0
 _ZTS12KColorScheme@Base 6.0.0
 _ZTS19KColorSchemeManager@Base 6.0.0
 _ZTV12KColorScheme@Base 6.0.0
 _ZTV19KColorSchemeManager@Base 6.0.0
